target datalayout = "e-m:e-p270:32:32-p271:32:32-p272:64:64-i64:64-i128:128-f80:128-n8:16:32:64-S128"
target triple = "x86_64-pc-linux-gnu"

%struct.UPropsVectors = type { ptr, i32, i32, i32, i32, i8 }

; Function Attrs: inlinehint mustprogress nounwind uwtable
define internal noundef signext i8 @_ZL9U_FAILURE10UErrorCode(i32 noundef %0) #2 {
  %2 = alloca i32, align 4
  store i32 %0, ptr %2, align 4, !tbaa !9
  %3 = load i32, ptr %2, align 4, !tbaa !9
  %4 = icmp sgt i32 %3, 0
  %5 = zext i1 %4 to i8
  ret i8 %5
}

; Function Attrs: mustprogress uwtable
define void @upvec_compact_77(ptr noundef %0, ptr noundef %1, ptr noundef %2, ptr noundef %3) #0 {
  %5 = alloca ptr, align 8
  %6 = alloca ptr, align 8
  %7 = alloca ptr, align 8
  %8 = alloca ptr, align 8
  %9 = alloca ptr, align 8
  %10 = alloca i32, align 4
  %11 = alloca i32, align 4
  %12 = alloca i32, align 4
  %13 = alloca i32, align 4
  %14 = alloca i32, align 4
  %15 = alloca i32, align 4
  %16 = alloca i32, align 4
  %17 = alloca i32, align 4
  store ptr %0, ptr %5, align 8, !tbaa !11
  store ptr %1, ptr %6, align 8, !tbaa !7
  store ptr %2, ptr %7, align 8, !tbaa !7
  store ptr %3, ptr %8, align 8, !tbaa !7
  call void @llvm.lifetime.start.p0(i64 8, ptr %9) #9
  call void @llvm.lifetime.start.p0(i64 4, ptr %10) #9
  call void @llvm.lifetime.start.p0(i64 4, ptr %11) #9
  call void @llvm.lifetime.start.p0(i64 4, ptr %12) #9
  call void @llvm.lifetime.start.p0(i64 4, ptr %13) #9
  call void @llvm.lifetime.start.p0(i64 4, ptr %14) #9
  call void @llvm.lifetime.start.p0(i64 4, ptr %15) #9
  call void @llvm.lifetime.start.p0(i64 4, ptr %16) #9
  %18 = load ptr, ptr %8, align 8, !tbaa !7
  %19 = load i32, ptr %18, align 4, !tbaa !9
  %20 = call noundef signext i8 @_ZL9U_FAILURE10UErrorCode(i32 noundef %19)
  %21 = icmp ne i8 %20, 0
  br i1 %21, label %22, label %23

22:                                               ; preds = %4
  store i32 1, ptr %17, align 4
  br label %227

23:                                               ; preds = %4
  %24 = load ptr, ptr %6, align 8, !tbaa !7
  %25 = icmp eq ptr %24, null
  br i1 %25, label %26, label %28

26:                                               ; preds = %23
  %27 = load ptr, ptr %8, align 8, !tbaa !7
  store i32 1, ptr %27, align 4, !tbaa !9
  store i32 1, ptr %17, align 4
  br label %227

28:                                               ; preds = %23
  %29 = load ptr, ptr %5, align 8, !tbaa !11
  %30 = getelementptr inbounds nuw %struct.UPropsVectors, ptr %29, i32 0, i32 5
  %31 = load i8, ptr %30, align 8, !tbaa !22
  %32 = icmp ne i8 %31, 0
  br i1 %32, label %33, label %34

33:                                               ; preds = %28
  store i32 1, ptr %17, align 4
  br label %227

34:                                               ; preds = %28
  %35 = load ptr, ptr %5, align 8, !tbaa !11
  %36 = getelementptr inbounds nuw %struct.UPropsVectors, ptr %35, i32 0, i32 5
  store i8 1, ptr %36, align 8, !tbaa !22
  %37 = load ptr, ptr %5, align 8, !tbaa !11
  %38 = getelementptr inbounds nuw %struct.UPropsVectors, ptr %37, i32 0, i32 3
  %39 = load i32, ptr %38, align 8, !tbaa !19
  store i32 %39, ptr %13, align 4, !tbaa !3
  %40 = load ptr, ptr %5, align 8, !tbaa !11
  %41 = getelementptr inbounds nuw %struct.UPropsVectors, ptr %40, i32 0, i32 1
  %42 = load i32, ptr %41, align 8, !tbaa !17
  store i32 %42, ptr %11, align 4, !tbaa !3
  %43 = load i32, ptr %11, align 4, !tbaa !3
  %44 = sub nsw i32 %43, 2
  store i32 %44, ptr %12, align 4, !tbaa !3
  %45 = load ptr, ptr %5, align 8, !tbaa !11
  %46 = getelementptr inbounds nuw %struct.UPropsVectors, ptr %45, i32 0, i32 0
  %47 = load ptr, ptr %46, align 8, !tbaa !15
  %48 = load i32, ptr %13, align 4, !tbaa !3
  %49 = load i32, ptr %11, align 4, !tbaa !3
  %50 = mul nsw i32 %49, 4
  %51 = load ptr, ptr %5, align 8, !tbaa !11
  %52 = load ptr, ptr %8, align 8, !tbaa !7
  call void @uprv_sortArray_77(ptr noundef %47, i32 noundef %48, i32 noundef %50, ptr noundef @_ZL17upvec_compareRowsPKvS0_S0_, ptr noundef %51, i8 noundef signext 0, ptr noundef %52)
  %53 = load ptr, ptr %8, align 8, !tbaa !7
  %54 = load i32, ptr %53, align 4, !tbaa !9
  %55 = call noundef signext i8 @_ZL9U_FAILURE10UErrorCode(i32 noundef %54)
  %56 = icmp ne i8 %55, 0
  br i1 %56, label %57, label %58

57:                                               ; preds = %34
  store i32 1, ptr %17, align 4
  br label %227

58:                                               ; preds = %34
  %59 = load ptr, ptr %5, align 8, !tbaa !11
  %60 = getelementptr inbounds nuw %struct.UPropsVectors, ptr %59, i32 0, i32 0
  %61 = load ptr, ptr %60, align 8, !tbaa !15
  store ptr %61, ptr %9, align 8, !tbaa !13
  %62 = load i32, ptr %12, align 4, !tbaa !3
  %63 = sub nsw i32 0, %62
  store i32 %63, ptr %14, align 4, !tbaa !3
  store i32 0, ptr %10, align 4, !tbaa !3
  br label %64

64:                                               ; preds = %115, %58
  %65 = load i32, ptr %10, align 4, !tbaa !3
  %66 = load i32, ptr %13, align 4, !tbaa !3
  %67 = icmp slt i32 %65, %66
  br i1 %67, label %68, label %118

68:                                               ; preds = %64
  %69 = load ptr, ptr %9, align 8, !tbaa !13
  %70 = getelementptr inbounds i32, ptr %69, i64 0
  %71 = load i32, ptr %70, align 4, !tbaa !3
  store i32 %71, ptr %15, align 4, !tbaa !3
  %72 = load i32, ptr %14, align 4, !tbaa !3
  %73 = icmp slt i32 %72, 0
  br i1 %73, label %87, label %74

74:                                               ; preds = %68
  %75 = load ptr, ptr %9, align 8, !tbaa !13
  %76 = getelementptr inbounds i32, ptr %75, i64 2
  %77 = load ptr, ptr %9, align 8, !tbaa !13
  %78 = load i32, ptr %12, align 4, !tbaa !3
  %79 = sext i32 %78 to i64
  %80 = sub i64 0, %79
  %81 = getelementptr inbounds i32, ptr %77, i64 %80
  %82 = load i32, ptr %12, align 4, !tbaa !3
  %83 = mul nsw i32 %82, 4
  %84 = sext i32 %83 to i64
  %85 = call i32 @memcmp(ptr noundef %76, ptr noundef %81, i64 noundef %84) #11
  %86 = icmp ne i32 0, %85
  br i1 %86, label %87, label %91

87:                                               ; preds = %74, %68
  %88 = load i32, ptr %12, align 4, !tbaa !3
  %89 = load i32, ptr %14, align 4, !tbaa !3
  %90 = add nsw i32 %89, %88
  store i32 %90, ptr %14, align 4, !tbaa !3
  br label %91

91:                                               ; preds = %87, %74
  %92 = load i32, ptr %15, align 4, !tbaa !3
  %93 = icmp sge i32 %92, 1114112
  br i1 %93, label %94, label %110

94:                                               ; preds = %91
  %95 = load ptr, ptr %6, align 8, !tbaa !7
  %96 = load ptr, ptr %7, align 8, !tbaa !7
  %97 = load i32, ptr %15, align 4, !tbaa !3
  %98 = load i32, ptr %15, align 4, !tbaa !3
  %99 = load i32, ptr %14, align 4, !tbaa !3
  %100 = load ptr, ptr %9, align 8, !tbaa !13
  %101 = getelementptr inbounds i32, ptr %100, i64 2
  %102 = load i32, ptr %12, align 4, !tbaa !3
  %103 = load ptr, ptr %8, align 8, !tbaa !7
  call void %95(ptr noundef %96, i32 noundef %97, i32 noundef %98, i32 noundef %99, ptr noundef %101, i32 noundef %102, ptr noundef %103)
  %104 = load ptr, ptr %8, align 8, !tbaa !7
  %105 = load i32, ptr %104, align 4, !tbaa !9
  %106 = call noundef signext i8 @_ZL9U_FAILURE10UErrorCode(i32 noundef %105)
  %107 = icmp ne i8 %106, 0
  br i1 %107, label %108, label %109

108:                                              ; preds = %94
  store i32 1, ptr %17, align 4
  br label %227

109:                                              ; preds = %94
  br label %110

110:                                              ; preds = %109, %91
  %111 = load i32, ptr %11, align 4, !tbaa !3
  %112 = load ptr, ptr %9, align 8, !tbaa !13
  %113 = sext i32 %111 to i64
  %114 = getelementptr inbounds i32, ptr %112, i64 %113
  store ptr %114, ptr %9, align 8, !tbaa !13
  br label %115

115:                                              ; preds = %110
  %116 = load i32, ptr %10, align 4, !tbaa !3
  %117 = add nsw i32 %116, 1
  store i32 %117, ptr %10, align 4, !tbaa !3
  br label %64, !llvm.loop !28

118:                                              ; preds = %64
  %119 = load i32, ptr %12, align 4, !tbaa !3
  %120 = load i32, ptr %14, align 4, !tbaa !3
  %121 = add nsw i32 %120, %119
  store i32 %121, ptr %14, align 4, !tbaa !3
  %122 = load ptr, ptr %6, align 8, !tbaa !7
  %123 = load ptr, ptr %7, align 8, !tbaa !7
  %124 = load i32, ptr %14, align 4, !tbaa !3
  %125 = load ptr, ptr %9, align 8, !tbaa !13
  %126 = load i32, ptr %12, align 4, !tbaa !3
  %127 = sext i32 %126 to i64
  %128 = sub i64 0, %127
  %129 = getelementptr inbounds i32, ptr %125, i64 %128
  %130 = load i32, ptr %12, align 4, !tbaa !3
  %131 = load ptr, ptr %8, align 8, !tbaa !7
  call void %122(ptr noundef %123, i32 noundef 2097152, i32 noundef 2097152, i32 noundef %124, ptr noundef %129, i32 noundef %130, ptr noundef %131)
  %132 = load ptr, ptr %8, align 8, !tbaa !7
  %133 = load i32, ptr %132, align 4, !tbaa !9
  %134 = call noundef signext i8 @_ZL9U_FAILURE10UErrorCode(i32 noundef %133)
  %135 = icmp ne i8 %134, 0
  br i1 %135, label %136, label %137

136:                                              ; preds = %118
  store i32 1, ptr %17, align 4
  br label %227

137:                                              ; preds = %118
  %138 = load ptr, ptr %5, align 8, !tbaa !11
  %139 = getelementptr inbounds nuw %struct.UPropsVectors, ptr %138, i32 0, i32 0
  %140 = load ptr, ptr %139, align 8, !tbaa !15
  store ptr %140, ptr %9, align 8, !tbaa !13
  %141 = load i32, ptr %12, align 4, !tbaa !3
  %142 = sub nsw i32 0, %141
  store i32 %142, ptr %14, align 4, !tbaa !3
  store i32 0, ptr %10, align 4, !tbaa !3
  br label %143

143:                                              ; preds = %217, %137
  %144 = load i32, ptr %10, align 4, !tbaa !3
  %145 = load i32, ptr %13, align 4, !tbaa !3
  %146 = icmp slt i32 %144, %145
  br i1 %146, label %147, label %220

147:                                              ; preds = %143
  %148 = load ptr, ptr %9, align 8, !tbaa !13
  %149 = getelementptr inbounds i32, ptr %148, i64 0
  %150 = load i32, ptr %149, align 4, !tbaa !3
  store i32 %150, ptr %15, align 4, !tbaa !3
  %151 = load ptr, ptr %9, align 8, !tbaa !13
  %152 = getelementptr inbounds i32, ptr %151, i64 1
  %153 = load i32, ptr %152, align 4, !tbaa !3
  store i32 %153, ptr %16, align 4, !tbaa !3
  %154 = load i32, ptr %14, align 4, !tbaa !3
  %155 = icmp slt i32 %154, 0
  br i1 %155, label %170, label %156

156:                                              ; preds = %147
  %157 = load ptr, ptr %9, align 8, !tbaa !13
  %158 = getelementptr inbounds i32, ptr %157, i64 2
  %159 = load ptr, ptr %5, align 8, !tbaa !11
  %160 = getelementptr inbounds nuw %struct.UPropsVectors, ptr %159, i32 0, i32 0
  %161 = load ptr, ptr %160, align 8, !tbaa !15
  %162 = load i32, ptr %14, align 4, !tbaa !3
  %163 = sext i32 %162 to i64
  %164 = getelementptr inbounds i32, ptr %161, i64 %163
  %165 = load i32, ptr %12, align 4, !tbaa !3
  %166 = mul nsw i32 %165, 4
  %167 = sext i32 %166 to i64
  %168 = call i32 @memcmp(ptr noundef %158, ptr noundef %164, i64 noundef %167) #11
  %169 = icmp ne i32 0, %168
  br i1 %169, label %170, label %188

170:                                              ; preds = %156, %147
  %171 = load i32, ptr %12, align 4, !tbaa !3
  %172 = load i32, ptr %14, align 4, !tbaa !3
  %173 = add nsw i32 %172, %171
  store i32 %173, ptr %14, align 4, !tbaa !3
  br label %174

174:                                              ; preds = %170
  %175 = load ptr, ptr %5, align 8, !tbaa !11
  %176 = getelementptr inbounds nuw %struct.UPropsVectors, ptr %175, i32 0, i32 0
  %177 = load ptr, ptr %176, align 8, !tbaa !15
  %178 = load i32, ptr %14, align 4, !tbaa !3
  %179 = sext i32 %178 to i64
  %180 = getelementptr inbounds i32, ptr %177, i64 %179
  %181 = load ptr, ptr %9, align 8, !tbaa !13
  %182 = getelementptr inbounds i32, ptr %181, i64 2
  %183 = load i32, ptr %12, align 4, !tbaa !3
  %184 = sext i32 %183 to i64
  %185 = mul i64 %184, 4
  call void @llvm.memmove.p0.p0.i64(ptr align 4 %180, ptr align 4 %182, i64 %185, i1 false)
  br label %186

186:                                              ; preds = %174
  br label %187

187:                                              ; preds = %186
  br label %188

188:                                              ; preds = %187, %156
  %189 = load i32, ptr %15, align 4, !tbaa !3
  %190 = icmp slt i32 %189, 1114112
  br i1 %190, label %191, label %212

191:                                              ; preds = %188
  %192 = load ptr, ptr %6, align 8, !tbaa !7
  %193 = load ptr, ptr %7, align 8, !tbaa !7
  %194 = load i32, ptr %15, align 4, !tbaa !3
  %195 = load i32, ptr %16, align 4, !tbaa !3
  %196 = sub nsw i32 %195, 1
  %197 = load i32, ptr %14, align 4, !tbaa !3
  %198 = load ptr, ptr %5, align 8, !tbaa !11
  %199 = getelementptr inbounds nuw %struct.UPropsVectors, ptr %198, i32 0, i32 0
  %200 = load ptr, ptr %199, align 8, !tbaa !15
  %201 = load i32, ptr %14, align 4, !tbaa !3
  %202 = sext i32 %201 to i64
  %203 = getelementptr inbounds i32, ptr %200, i64 %202
  %204 = load i32, ptr %12, align 4, !tbaa !3
  %205 = load ptr, ptr %8, align 8, !tbaa !7
  call void %192(ptr noundef %193, i32 noundef %194, i32 noundef %196, i32 noundef %197, ptr noundef %203, i32 noundef %204, ptr noundef %205)
  %206 = load ptr, ptr %8, align 8, !tbaa !7
  %207 = load i32, ptr %206, align 4, !tbaa !9
  %208 = call noundef signext i8 @_ZL9U_FAILURE10UErrorCode(i32 noundef %207)
  %209 = icmp ne i8 %208, 0
  br i1 %209, label %210, label %211

210:                                              ; preds = %191
  store i32 1, ptr %17, align 4
  br label %227

211:                                              ; preds = %191
  br label %212

212:                                              ; preds = %211, %188
  %213 = load i32, ptr %11, align 4, !tbaa !3
  %214 = load ptr, ptr %9, align 8, !tbaa !13
  %215 = sext i32 %213 to i64
  %216 = getelementptr inbounds i32, ptr %214, i64 %215
  store ptr %216, ptr %9, align 8, !tbaa !13
  br label %217

217:                                              ; preds = %212
  %218 = load i32, ptr %10, align 4, !tbaa !3
  %219 = add nsw i32 %218, 1
  store i32 %219, ptr %10, align 4, !tbaa !3
  br label %143, !llvm.loop !29

220:                                              ; preds = %143
  %221 = load i32, ptr %14, align 4, !tbaa !3
  %222 = load i32, ptr %12, align 4, !tbaa !3
  %223 = sdiv i32 %221, %222
  %224 = add nsw i32 %223, 1
  %225 = load ptr, ptr %5, align 8, !tbaa !11
  %226 = getelementptr inbounds nuw %struct.UPropsVectors, ptr %225, i32 0, i32 3
  store i32 %224, ptr %226, align 8, !tbaa !19
  store i32 0, ptr %17, align 4
  br label %227

227:                                              ; preds = %220, %210, %136, %108, %57, %33, %26, %22
  call void @llvm.lifetime.end.p0(i64 4, ptr %16) #9
  call void @llvm.lifetime.end.p0(i64 4, ptr %15) #9
  call void @llvm.lifetime.end.p0(i64 4, ptr %14) #9
  call void @llvm.lifetime.end.p0(i64 4, ptr %13) #9
  call void @llvm.lifetime.end.p0(i64 4, ptr %12) #9
  call void @llvm.lifetime.end.p0(i64 4, ptr %11) #9
  call void @llvm.lifetime.end.p0(i64 4, ptr %10) #9
  call void @llvm.lifetime.end.p0(i64 8, ptr %9) #9
  %228 = load i32, ptr %17, align 4
  switch i32 %228, label %230 [
    i32 0, label %229
    i32 1, label %229
  ]

229:                                              ; preds = %227, %227
  ret void

230:                                              ; preds = %227
  unreachable
}