; Function Attrs: mustprogress uwtable
define void @upvec_compact_77(ptr noundef %0, ptr noundef readonly %1, ptr noundef %2, ptr noundef %3) local_unnamed_addr #0 {
  %5 = load i32, ptr %3, align 4, !tbaa !3
  %6 = icmp slt i32 %5, 1
  br i1 %6, label %7, label %.loopexit

7:                                                ; preds = %4
  %8 = icmp eq ptr %1, null
  br i1 %8, label %9, label %10

9:                                                ; preds = %7
  store i32 1, ptr %3, align 4, !tbaa !3
  br label %.loopexit

10:                                               ; preds = %7
  %11 = getelementptr inbounds nuw i8, ptr %0, i64 24
  %12 = load i8, ptr %11, align 8, !tbaa !18
  %.not90 = icmp eq i8 %12, 0
  br i1 %.not90, label %13, label %.loopexit

13:                                               ; preds = %10
  store i8 1, ptr %11, align 8, !tbaa !18
  %14 = getelementptr inbounds nuw i8, ptr %0, i64 16
  %15 = load i32, ptr %14, align 8, !tbaa !14
  %16 = getelementptr inbounds nuw i8, ptr %0, i64 8
  %17 = load i32, ptr %16, align 8, !tbaa !12
  %18 = add nsw i32 %17, -2
  %19 = load ptr, ptr %0, align 8, !tbaa !7
  %20 = shl nsw i32 %17, 2
  tail call void @uprv_sortArray_77(ptr noundef %19, i32 noundef %15, i32 noundef %20, ptr noundef nonnull @_ZL17upvec_compareRowsPKvS0_S0_, ptr noundef nonnull %0, i8 noundef signext 0, ptr noundef nonnull %3)
  %21 = load i32, ptr %3, align 4, !tbaa !3
  %22 = icmp slt i32 %21, 1
  br i1 %22, label %23, label %.loopexit

23:                                               ; preds = %13
  %24 = load ptr, ptr %0, align 8, !tbaa !7
  %25 = sub nsw i32 2, %17
  %26 = icmp sgt i32 %15, 0
  %27 = sext i32 %18 to i64
  %28 = sub nsw i64 0, %27
  br i1 %26, label %.lr.ph, label %._crit_edge

.lr.ph:                                           ; preds = %23
  %29 = shl nsw i32 %18, 2
  %30 = sext i32 %29 to i64
  %31 = sext i32 %17 to i64
  br label %32

32:                                               ; preds = %.lr.ph, %46
  %.0104 = phi ptr [ %24, %.lr.ph ], [ %47, %46 ]
  %.082103 = phi i32 [ %25, %.lr.ph ], [ %.183, %46 ]
  %.084102 = phi i32 [ 0, %.lr.ph ], [ %48, %46 ]
  %33 = load i32, ptr %.0104, align 4, !tbaa !15
  %34 = icmp slt i32 %.082103, 0
  br i1 %34, label %38, label %35

35:                                               ; preds = %32
  %36 = getelementptr inbounds nuw i8, ptr %.0104, i64 8
  %37 = getelementptr inbounds i32, ptr %.0104, i64 %28
  %bcmp97 = tail call i32 @bcmp(ptr nonnull %36, ptr nonnull %37, i64 %30)
  %.not95 = icmp eq i32 %bcmp97, 0
  br i1 %.not95, label %40, label %38

38:                                               ; preds = %35, %32
  %39 = add nsw i32 %.082103, %18
  br label %40

40:                                               ; preds = %38, %35
  %.183 = phi i32 [ %39, %38 ], [ %.082103, %35 ]
  %41 = icmp sgt i32 %33, 1114111
  br i1 %41, label %42, label %46

42:                                               ; preds = %40
  %43 = getelementptr inbounds nuw i8, ptr %.0104, i64 8
  tail call void %1(ptr noundef %2, i32 noundef %33, i32 noundef %33, i32 noundef %.183, ptr noundef nonnull %43, i32 noundef %18, ptr noundef nonnull %3)
  %44 = load i32, ptr %3, align 4, !tbaa !3
  %45 = icmp slt i32 %44, 1
  br i1 %45, label %46, label %.loopexit

46:                                               ; preds = %42, %40
  %47 = getelementptr inbounds i32, ptr %.0104, i64 %31
  %48 = add nuw nsw i32 %.084102, 1
  %exitcond.not = icmp eq i32 %48, %15
  br i1 %exitcond.not, label %._crit_edge, label %32, !llvm.loop !23

._crit_edge:                                      ; preds = %46, %23
  %.082.lcssa = phi i32 [ %25, %23 ], [ %.183, %46 ]
  %.0.lcssa = phi ptr [ %24, %23 ], [ %47, %46 ]
  %49 = add nsw i32 %.082.lcssa, %18
  %50 = getelementptr inbounds i32, ptr %.0.lcssa, i64 %28
  tail call void %1(ptr noundef %2, i32 noundef 2097152, i32 noundef 2097152, i32 noundef %49, ptr noundef %50, i32 noundef %18, ptr noundef nonnull %3)
  %51 = load i32, ptr %3, align 4, !tbaa !3
  %52 = icmp slt i32 %51, 1
  br i1 %52, label %53, label %.loopexit

53:                                               ; preds = %._crit_edge
  br i1 %26, label %.lr.ph110, label %._crit_edge111

.lr.ph110:                                        ; preds = %53
  %54 = load ptr, ptr %0, align 8, !tbaa !7
  %55 = shl nsw i32 %18, 2
  %56 = sext i32 %55 to i64
  %57 = shl nsw i64 %27, 2
  %58 = sext i32 %17 to i64
  br label %59

59:                                               ; preds = %.lr.ph110, %82
  %.1108 = phi ptr [ %54, %.lr.ph110 ], [ %83, %82 ]
  %.2107 = phi i32 [ %25, %.lr.ph110 ], [ %.3, %82 ]
  %.185106 = phi i32 [ 0, %.lr.ph110 ], [ %84, %82 ]
  %60 = load i32, ptr %.1108, align 4, !tbaa !15
  %61 = getelementptr inbounds nuw i8, ptr %.1108, i64 4
  %62 = load i32, ptr %61, align 4, !tbaa !15
  %63 = icmp slt i32 %.2107, 0
  %.pre = load ptr, ptr %0, align 8, !tbaa !7
  br i1 %63, label %68, label %64

64:                                               ; preds = %59
  %65 = getelementptr inbounds nuw i8, ptr %.1108, i64 8
  %66 = zext nneg i32 %.2107 to i64
  %67 = getelementptr inbounds nuw i32, ptr %.pre, i64 %66
  %bcmp = tail call i32 @bcmp(ptr nonnull %65, ptr %67, i64 %56)
  %.not93 = icmp eq i32 %bcmp, 0
  br i1 %.not93, label %73, label %68

68:                                               ; preds = %64, %59
  %69 = add nsw i32 %.2107, %18
  %70 = sext i32 %69 to i64
  %71 = getelementptr inbounds i32, ptr %.pre, i64 %70
  %72 = getelementptr inbounds nuw i8, ptr %.1108, i64 8
  tail call void @llvm.memmove.p0.p0.i64(ptr align 4 %71, ptr nonnull align 4 %72, i64 %57, i1 false)
  br label %73

73:                                               ; preds = %68, %64
  %.3 = phi i32 [ %69, %68 ], [ %.2107, %64 ]
  %74 = icmp slt i32 %60, 1114112
  br i1 %74, label %75, label %82

75:                                               ; preds = %73
  %76 = add nsw i32 %62, -1
  %77 = load ptr, ptr %0, align 8, !tbaa !7
  %78 = sext i32 %.3 to i64
  %79 = getelementptr inbounds i32, ptr %77, i64 %78
  tail call void %1(ptr noundef %2, i32 noundef %60, i32 noundef %76, i32 noundef %.3, ptr noundef %79, i32 noundef %18, ptr noundef nonnull %3)
  %80 = load i32, ptr %3, align 4, !tbaa !3
  %81 = icmp slt i32 %80, 1
  br i1 %81, label %82, label %.loopexit

82:                                               ; preds = %75, %73
  %83 = getelementptr inbounds i32, ptr %.1108, i64 %58
  %84 = add nuw nsw i32 %.185106, 1
  %exitcond116.not = icmp eq i32 %84, %15
  br i1 %exitcond116.not, label %._crit_edge111, label %59, !llvm.loop !24

._crit_edge111:                                   ; preds = %82, %53
  %.2.lcssa = phi i32 [ %25, %53 ], [ %.3, %82 ]
  %85 = sdiv i32 %.2.lcssa, %18
  %86 = add nsw i32 %85, 1
  store i32 %86, ptr %14, align 8, !tbaa !14
  br label %.loopexit

.loopexit:                                        ; preds = %42, %75, %._crit_edge, %13, %10, %4, %._crit_edge111, %9
  ret void
}